; Function Attrs: nounwind uwtable
define ptr @l_Std_DHashMap_Internal_Raw_u2080_expand___at_Lean_Linter_UnusedVariables_insertObjImpl___spec__2(ptr noundef %0) local_unnamed_addr #1 {
  %2 = getelementptr i8, ptr %0, i64 8
  %.val = load i64, ptr %2, align 8, !tbaa !12
  %3 = shl i64 %.val, 1
  %4 = or disjoint i64 %3, 1
  %5 = inttoptr i64 %4 to ptr
  %6 = and i64 %.val, 9223372036854775807
  %7 = icmp eq i64 %6, 0
  br i1 %7, label %lean_dec.exit, label %8

8:                                                ; preds = %1
  %mul.i10.mask = and i64 %.val, 4611686018427387904
  %9 = icmp eq i64 %mul.i10.mask, 0
  br i1 %9, label %10, label %14

10:                                               ; preds = %8
  %11 = shl nuw i64 %6, 2
  %12 = or disjoint i64 %11, 1
  %13 = inttoptr i64 %12 to ptr
  br label %lean_dec.exit

14:                                               ; preds = %8
  %15 = tail call ptr @lean_nat_overflow_mul(i64 noundef %6, i64 noundef 2) #7
  br label %lean_dec.exit

lean_dec.exit:                                    ; preds = %14, %10, %1
  %.2.i = phi ptr [ %5, %1 ], [ %13, %10 ], [ %15, %14 ]
  %16 = tail call ptr @lean_mk_array(ptr noundef %.2.i, ptr noundef nonnull inttoptr (i64 1 to ptr)) #7
  %17 = tail call ptr @l_Std_DHashMap_Internal_Raw_u2080_expand_go___at_Lean_Linter_UnusedVariables_insertObjImpl___spec__3(ptr noundef nonnull inttoptr (i64 1 to ptr), ptr noundef nonnull %0, ptr noundef %16)
  ret ptr %17
}